target datalayout = "e-m:e-p270:32:32-p271:32:32-p272:64:64-i64:64-i128:128-f80:128-n8:16:32:64-S128"
target triple = "x86_64-pc-linux-gnu"

%class.ciEnv = type <{ ptr, %class.Arena, ptr, ptr, ptr, ptr, %class.CHeapStringHolder, i8, [3 x i8], i32, i8, [3 x i8], i32, ptr, ptr, ptr, ptr, i32, [4 x i8], i64, i8, i8, i8, i8, i8, i8, i8, i8, ptr, ptr, ptr, ptr, ptr, ptr, ptr, ptr, ptr, [1025 x i8], [7 x i8] }>
%class.Arena = type { i8, i8, i64, ptr, ptr, ptr, ptr }
%class.CHeapStringHolder = type { ptr }

@.str.7 = private unnamed_addr constant [24 x i8] c"call site target change\00", align 1
@.str.8 = private unnamed_addr constant [25 x i8] c"concurrent class loading\00", align 1
@.str.9 = private unnamed_addr constant [29 x i8] c"invalid non-klass dependency\00", align 1

; Function Attrs: mustprogress nounwind uwtable
define linkonce_odr hidden noundef zeroext i1 @_ZN12Dependencies12dept_in_maskENS_7DepTypeEi(i32 noundef %0, i32 noundef %1) #1 comdat align 2 {
  %3 = alloca i32, align 4
  %4 = alloca i32, align 4
  store i32 %0, ptr %3, align 4
  store i32 %1, ptr %4, align 4
  %5 = load i32, ptr %3, align 4
  %6 = icmp sge i32 %5, 0
  br i1 %6, label %7, label %16

7:                                                ; preds = %2
  %8 = load i32, ptr %3, align 4
  %9 = icmp slt i32 %8, 9
  br i1 %9, label %10, label %16

10:                                               ; preds = %7
  %11 = load i32, ptr %3, align 4
  %12 = shl i32 1, %11
  %13 = load i32, ptr %4, align 4
  %14 = and i32 %12, %13
  %15 = icmp ne i32 %14, 0
  br label %16

16:                                               ; preds = %10, %7, %2
  %17 = phi i1 [ false, %7 ], [ false, %2 ], [ %15, %10 ]
  ret i1 %17
}

; Function Attrs: mustprogress nounwind uwtable
define linkonce_odr hidden noundef ptr @_ZNK17CHeapStringHolder3getEv(ptr noundef nonnull align 8 dereferenceable(8) %0) #1 comdat align 2 {
  %2 = alloca ptr, align 8
  store ptr %0, ptr %2, align 8
  %3 = load ptr, ptr %2, align 8
  %4 = getelementptr inbounds %class.CHeapStringHolder, ptr %3, i32 0, i32 0
  %5 = load ptr, ptr %4, align 8
  ret ptr %5
}

; Function Attrs: mustprogress nounwind uwtable
define linkonce_odr hidden noundef zeroext i1 @_ZN12Dependencies13is_klass_typeENS_7DepTypeE(i32 noundef %0) #1 comdat align 2 {
  %2 = alloca i32, align 4
  store i32 %0, ptr %2, align 4
  %3 = load i32, ptr %2, align 4
  %4 = call noundef zeroext i1 @_ZN12Dependencies12dept_in_maskENS_7DepTypeEi(i32 noundef %3, i32 noundef 254)
  ret i1 %4
}

; Function Attrs: mustprogress nounwind uwtable
define hidden void @_ZN5ciEnv14record_failureEPKc(ptr noundef nonnull align 8 dereferenceable(1265) %0, ptr noundef %1) #1 align 2 {
  %3 = alloca ptr, align 8
  %4 = alloca ptr, align 8
  store ptr %0, ptr %3, align 8
  store ptr %1, ptr %4, align 8
  %5 = load ptr, ptr %3, align 8
  %6 = getelementptr inbounds %class.ciEnv, ptr %5, i32 0, i32 6
  %7 = call noundef ptr @_ZNK17CHeapStringHolder3getEv(ptr noundef nonnull align 8 dereferenceable(8) %6)
  %8 = icmp eq ptr %7, null
  br i1 %8, label %9, label %12

9:                                                ; preds = %2
  %10 = getelementptr inbounds %class.ciEnv, ptr %5, i32 0, i32 6
  %11 = load ptr, ptr %4, align 8
  call void @_ZN17CHeapStringHolder3setEPKc(ptr noundef nonnull align 8 dereferenceable(8) %10, ptr noundef %11)
  br label %12

12:                                               ; preds = %9, %2
  ret void
}

; Function Attrs: mustprogress nounwind uwtable
define linkonce_odr hidden noundef ptr @_ZN5ciEnv12dependenciesEv(ptr noundef nonnull align 8 dereferenceable(1265) %0) #1 comdat align 2 {
  %2 = alloca ptr, align 8
  store ptr %0, ptr %2, align 8
  %3 = load ptr, ptr %2, align 8
  %4 = getelementptr inbounds %class.ciEnv, ptr %3, i32 0, i32 5
  %5 = load ptr, ptr %4, align 8
  ret ptr %5
}

; Function Attrs: mustprogress nounwind uwtable
define linkonce_odr hidden noundef zeroext i1 @_ZNK5ciEnv7failingEv(ptr noundef nonnull align 8 dereferenceable(1265) %0) #1 comdat align 2 {
  %2 = alloca ptr, align 8
  store ptr %0, ptr %2, align 8
  %3 = load ptr, ptr %2, align 8
  %4 = getelementptr inbounds %class.ciEnv, ptr %3, i32 0, i32 6
  %5 = call noundef ptr @_ZNK17CHeapStringHolder3getEv(ptr noundef nonnull align 8 dereferenceable(8) %4)
  %6 = icmp ne ptr %5, null
  ret i1 %6
}

; Function Attrs: mustprogress nounwind uwtable
define hidden void @_ZN5ciEnv34validate_compile_task_dependenciesEP8ciMethod(ptr noundef nonnull align 8 dereferenceable(1265) %0, ptr noundef %1) #1 align 2 {
  %3 = alloca ptr, align 8
  %4 = alloca ptr, align 8
  %5 = alloca i32, align 4
  store ptr %0, ptr %3, align 8
  store ptr %1, ptr %4, align 8
  %6 = load ptr, ptr %3, align 8
  %7 = call noundef zeroext i1 @_ZNK5ciEnv7failingEv(ptr noundef nonnull align 8 dereferenceable(1265) %6)
  br i1 %7, label %8, label %9

8:                                                ; preds = %2
  br label %28

9:                                                ; preds = %2
  %10 = call noundef ptr @_ZN5ciEnv12dependenciesEv(ptr noundef nonnull align 8 dereferenceable(1265) %6)
  %11 = getelementptr inbounds %class.ciEnv, ptr %6, i32 0, i32 13
  %12 = load ptr, ptr %11, align 8
  %13 = call noundef i32 @_ZN12Dependencies21validate_dependenciesEP11CompileTaskPPc(ptr noundef nonnull align 8 dereferenceable(192) %10, ptr noundef %12, ptr noundef null)
  store i32 %13, ptr %5, align 4
  %14 = load i32, ptr %5, align 4
  %15 = icmp ne i32 %14, 0
  br i1 %15, label %16, label %28

16:                                               ; preds = %9
  %17 = load i32, ptr %5, align 4
  %18 = icmp eq i32 %17, 8
  br i1 %18, label %19, label %21

19:                                               ; preds = %16
  %20 = getelementptr inbounds %class.ciEnv, ptr %6, i32 0, i32 7
  store i8 0, ptr %20, align 8
  call void @_ZN5ciEnv14record_failureEPKc(ptr noundef nonnull align 8 dereferenceable(1265) %6, ptr noundef @.str.7)
  br label %27

21:                                               ; preds = %16
  %22 = load i32, ptr %5, align 4
  %23 = call noundef zeroext i1 @_ZN12Dependencies13is_klass_typeENS_7DepTypeE(i32 noundef %22)
  br i1 %23, label %24, label %25

24:                                               ; preds = %21
  call void @_ZN5ciEnv14record_failureEPKc(ptr noundef nonnull align 8 dereferenceable(1265) %6, ptr noundef @.str.8)
  br label %26

25:                                               ; preds = %21
  call void @_ZN5ciEnv14record_failureEPKc(ptr noundef nonnull align 8 dereferenceable(1265) %6, ptr noundef @.str.9)
  br label %26

26:                                               ; preds = %25, %24
  br label %27

27:                                               ; preds = %26, %19
  br label %28

28:                                               ; preds = %27, %9, %8
  ret void
}