; Function Attrs: mustprogress nounwind uwtable
define hidden void @_ZN5ciEnv34validate_compile_task_dependenciesEP8ciMethod(ptr noundef nonnull align 8 dereferenceable(1265) %0, ptr nocapture noundef readnone %1) local_unnamed_addr #0 align 2 {
  %3 = getelementptr inbounds i8, ptr %0, i64 88
  %4 = load ptr, ptr %3, align 8
  %.not = icmp eq ptr %4, null
  br i1 %.not, label %5, label %_ZN5ciEnv14record_failureEPKc.exit

5:                                                ; preds = %2
  %6 = getelementptr inbounds i8, ptr %0, i64 80
  %7 = load ptr, ptr %6, align 8
  %8 = getelementptr inbounds i8, ptr %0, i64 112
  %9 = load ptr, ptr %8, align 8
  %10 = tail call noundef i32 @_ZN12Dependencies21validate_dependenciesEP11CompileTaskPPc(ptr noundef nonnull align 8 dereferenceable(192) %7, ptr noundef %9, ptr noundef null) #18
  switch i32 %10, label %15 [
    i32 0, label %_ZN5ciEnv14record_failureEPKc.exit
    i32 8, label %11
  ]

11:                                               ; preds = %5
  %12 = getelementptr inbounds i8, ptr %0, i64 96
  store i8 0, ptr %12, align 8
  %13 = load ptr, ptr %3, align 8
  %14 = icmp eq ptr %13, null
  br i1 %14, label %_ZN5ciEnv14record_failureEPKc.exit.sink.split, label %_ZN5ciEnv14record_failureEPKc.exit

15:                                               ; preds = %5
  %or.cond.i.i = icmp ult i32 %10, 9
  %16 = shl nuw nsw i32 1, %10
  %17 = and i32 %16, 254
  %18 = icmp ne i32 %17, 0
  %19 = select i1 %or.cond.i.i, i1 %18, i1 false
  %20 = load ptr, ptr %3, align 8
  %21 = icmp eq ptr %20, null
  %.str.8..str.9 = select i1 %19, ptr @.str.8, ptr @.str.9
  br i1 %21, label %_ZN5ciEnv14record_failureEPKc.exit.sink.split, label %_ZN5ciEnv14record_failureEPKc.exit

_ZN5ciEnv14record_failureEPKc.exit.sink.split:    ; preds = %15, %11
  %.str.9.sink = phi ptr [ @.str.7, %11 ], [ %.str.8..str.9, %15 ]
  tail call void @_ZN17CHeapStringHolder3setEPKc(ptr noundef nonnull align 8 dereferenceable(8) %3, ptr noundef nonnull %.str.9.sink) #18
  br label %_ZN5ciEnv14record_failureEPKc.exit

_ZN5ciEnv14record_failureEPKc.exit:               ; preds = %15, %_ZN5ciEnv14record_failureEPKc.exit.sink.split, %11, %5, %2
  ret void
}